Certificate Request:
    Data:
        Version: 0 (0x0)
        Subject: CN=www.test.com, O=NoCompany, C=US
        Subject Public Key Info:
            Public Key Algorithm: rsaEncryption
            RSA Public Key: (1024 bit)
                Modulus (1024 bit):
                    00:9c:6c:fc:49:cb:e7:e7:5f:57:fb:ca:de:f4:49:
                    d4:e0:9d:01:6d:58:a3:f1:81:cc:14:c6:5e:60:82:
                    dc:0f:5f:4a:48:23:50:c3:17:45:01:4d:78:75:44:
                    b9:a9:88:02:c0:af:7a:50:fb:a5:5a:07:cc:44:7a:
                    f6:35:e8:17:a8:83:10:4d:be:23:df:02:a6:5c:f8:
                    0a:7f:5c:b4:de:51:e7:af:b6:b1:51:00:0f:a2:ce:
                    6c:64:c5:b6:44:6d:84:f6:83:a4:88:fb:26:80:7b:
                    13:16:cb:8d:7e:fd:9f:bb:e1:dc:f1:39:2f:df:19:
                    1b:45:00:9b:03:0f:5f:43:db
                Exponent: 65537 (0x10001)
        Attributes:
            a0:00
    Signature Algorithm: sha1WithRSAEncryption
        05:f0:57:83:a7:90:a0:f7:4b:b0:a5:ea:5a:57:3a:17:f9:37:
        e3:14:0b:d1:6f:1a:ed:53:90:d6:84:ff:10:9b:70:a1:20:a3:
        f9:11:dd:eb:9c:6e:2d:dc:f1:08:0e:ea:33:57:ec:a7:4e:30:
        71:30:2d:3e:fa:17:f4:12:e4:3d:57:ab:d8:af:82:8a:8e:ab:
        59:eb:0b:e3:02:7a:96:87:c4:bd:1c:bb:02:6d:7d:c4:52:87:
        bc:8c:96:92:28:5a:44:c9:6c:65:c0:c9:e4:de:3e:af:4d:58:
        5e:8e:9e:2a:76:8a:92:3a:4e:dd:73:fb:4e:41:b7:59:a5:04:
        64:39
-----BEGIN CERTIFICATE REQUEST-----
MIIBdzCB4QIBADA4MRUwEwYDVQQDEwx3d3cudGVzdC5jb20xEjAQBgNVBAoTCU5v
Q29tcGFueTELMAkGA1UEBhMCVVMwgZ8wDQYJKoZIhvcNAQEBBQADgY0AMIGJAoGB
AJxs/EnL5+dfV/vK3vRJ1OCdAW1Yo/GBzBTGXmCC3A9fSkgjUMMXRQFNeHVEuamI
AsCvelD7pVoHzER69jXoF6iDEE2+I98Cplz4Cn9ctN5R56+2sVEAD6LObGTFtkRt
hPaDpIj7JoB7ExbLjX79n7vh3PE5L98ZG0UAmwMPX0PbAgMBAAGgADANBgkqhkiG
9w0BAQUFAAOBgQAF8FeDp5Cg90uwpepaVzoX+TfjFAvRbxrtU5DWhP8Qm3ChIKP5
Ed3rnG4t3PEIDuozV+ynTjBxMC0++hf0EuQ9V6vYr4KKjqtZ6wvjAnqWh8S9HLsC
bX3EUoe8jJaSKFpEyWxlwMnk3j6vTVhejp4qdoqSOk7dc/tOQbdZpQRkOQ==
-----END CERTIFICATE REQUEST-----
